; Function Attrs: nounwind uwtable
define hidden noalias ptr @SDL_GetMice_REAL(ptr noundef writeonly captures(address_is_null) %0) local_unnamed_addr #0 {
  %2 = load i32, ptr @SDL_mouse_count, align 4
  %3 = add nsw i32 %2, 1
  %4 = sext i32 %3 to i64
  %5 = shl nsw i64 %4, 2
  %6 = tail call noalias ptr @SDL_malloc_REAL(i64 noundef %5) #13
  %.not = icmp eq ptr %6, null
  %.not14 = icmp eq ptr %0, null
  br i1 %.not, label %18, label %7

7:                                                ; preds = %1
  %.pre = load i32, ptr @SDL_mouse_count, align 4
  br i1 %.not14, label %9, label %8

8:                                                ; preds = %7
  store i32 %.pre, ptr %0, align 4
  br label %9

9:                                                ; preds = %8, %7
  %10 = icmp sgt i32 %.pre, 0
  br i1 %10, label %.lr.ph, label %._crit_edge

.lr.ph:                                           ; preds = %9
  %11 = load ptr, ptr @SDL_mice, align 8
  %wide.trip.count = zext nneg i32 %.pre to i64
  br label %12

12:                                               ; preds = %.lr.ph, %12
  %indvars.iv = phi i64 [ 0, %.lr.ph ], [ %indvars.iv.next, %12 ]
  %13 = getelementptr inbounds nuw %struct.SDL_MouseInstance, ptr %11, i64 %indvars.iv
  %14 = load i32, ptr %13, align 8
  %15 = getelementptr inbounds nuw i32, ptr %6, i64 %indvars.iv
  store i32 %14, ptr %15, align 4
  %indvars.iv.next = add nuw nsw i64 %indvars.iv, 1
  %exitcond.not = icmp eq i64 %indvars.iv.next, %wide.trip.count
  br i1 %exitcond.not, label %._crit_edge.loopexit, label %12, !llvm.loop !9

._crit_edge.loopexit:                             ; preds = %12
  %16 = zext nneg i32 %.pre to i64
  br label %._crit_edge

._crit_edge:                                      ; preds = %9, %._crit_edge.loopexit
  %.0.lcssa = phi i64 [ %16, %._crit_edge.loopexit ], [ 0, %9 ]
  %17 = getelementptr inbounds nuw i32, ptr %6, i64 %.0.lcssa
  store i32 0, ptr %17, align 4
  br label %20

18:                                               ; preds = %1
  br i1 %.not14, label %20, label %19

19:                                               ; preds = %18
  store i32 0, ptr %0, align 4
  br label %20

20:                                               ; preds = %18, %19, %._crit_edge
  ret ptr %6
}